ccollections
OrderedDict
p1
((lp2
(lp3
S'lower'
p4
aI00
aa(lp5
S'zeros'
p6
aI00
aa(lp7
S'char_dim'
p8
aI25
aa(lp9
S'char_lstm_dim'
p10
aI25
aa(lp11
S'char_bidirect'
p12
aI01
aa(lp13
S'word_dim'
p14
aI500
aa(lp15
S'word_lstm_dim'
p16
aI100
aa(lp17
S'word_bidirect'
p18
aI01
aa(lp19
S'pre_emb'
p20
aS'/home/wenqiang/vectors.bin'
p21
aa(lp22
S'all_emb'
p23
aI00
aa(lp24
S'cap_dim'
p25
aI1
aa(lp26
S'crf'
p27
aI01
aa(lp28
S'dropout'
p29
aF0.5
aa(lp30
S'lr_method'
p31
aS'sgd-lr_.005'
p32
aatRp33
.